target datalayout = "e-m:e-p270:32:32-p271:32:32-p272:64:64-i64:64-i128:128-f80:128-n8:16:32:64-S128"
target triple = "x86_64-pc-linux-gnu"

%struct.BackendGlobalData = type <{ ptr, ptr, i8, i8, i8, i8, i8, i8, i8, i8, i8, [3 x i8], i32, ptr, ptr, ptr, ptr, ptr, ptr, ptr, ptr, ptr, ptr, ptr, ptr, ptr, i32, %struct.jvmtiCapabilities, i8, [3 x i8], %struct.jvmtiEventCallbacks, ptr, ptr, ptr, ptr, ptr, ptr, ptr, i32, [4 x i8], ptr, i64, i32, [4 x i8], ptr, i32, i32, i8, i8, [6 x i8] }>
%struct.jvmtiCapabilities = type { i64, i64 }
%struct.jvmtiEventCallbacks = type { ptr, ptr, ptr, ptr, ptr, ptr, ptr, ptr, ptr, ptr, ptr, ptr, ptr, ptr, ptr, ptr, ptr, ptr, ptr, ptr, ptr, ptr, ptr, ptr, ptr, ptr, ptr, ptr, ptr, ptr, ptr, ptr, ptr, ptr, ptr, ptr, ptr, ptr, ptr }
%struct.JNINativeInterface_ = type { ptr, ptr, ptr, ptr, ptr, ptr, ptr, ptr, ptr, ptr, ptr, ptr, ptr, ptr, ptr, ptr, ptr, ptr, ptr, ptr, ptr, ptr, ptr, ptr, ptr, ptr, ptr, ptr, ptr, ptr, ptr, ptr, ptr, ptr, ptr, ptr, ptr, ptr, ptr, ptr, ptr, ptr, ptr, ptr, ptr, ptr, ptr, ptr, ptr, ptr, ptr, ptr, ptr, ptr, ptr, ptr, ptr, ptr, ptr, ptr, ptr, ptr, ptr, ptr, ptr, ptr, ptr, ptr, ptr, ptr, ptr, ptr, ptr, ptr, ptr, ptr, ptr, ptr, ptr, ptr, ptr, ptr, ptr, ptr, ptr, ptr, ptr, ptr, ptr, ptr, ptr, ptr, ptr, ptr, ptr, ptr, ptr, ptr, ptr, ptr, ptr, ptr, ptr, ptr, ptr, ptr, ptr, ptr, ptr, ptr, ptr, ptr, ptr, ptr, ptr, ptr, ptr, ptr, ptr, ptr, ptr, ptr, ptr, ptr, ptr, ptr, ptr, ptr, ptr, ptr, ptr, ptr, ptr, ptr, ptr, ptr, ptr, ptr, ptr, ptr, ptr, ptr, ptr, ptr, ptr, ptr, ptr, ptr, ptr, ptr, ptr, ptr, ptr, ptr, ptr, ptr, ptr, ptr, ptr, ptr, ptr, ptr, ptr, ptr, ptr, ptr, ptr, ptr, ptr, ptr, ptr, ptr, ptr, ptr, ptr, ptr, ptr, ptr, ptr, ptr, ptr, ptr, ptr, ptr, ptr, ptr, ptr, ptr, ptr, ptr, ptr, ptr, ptr, ptr, ptr, ptr, ptr, ptr, ptr, ptr, ptr, ptr, ptr, ptr, ptr, ptr, ptr, ptr, ptr, ptr, ptr, ptr, ptr, ptr, ptr, ptr, ptr, ptr, ptr, ptr, ptr, ptr, ptr, ptr, ptr, ptr, ptr, ptr, ptr, ptr, ptr, ptr, ptr, ptr, ptr }

@gdata = hidden global ptr null, align 8
@stderr = external global ptr, align 8
@.str = private unnamed_addr constant [17 x i8] c"JDWP exit error \00", align 1
@.str.1 = private unnamed_addr constant [2 x i8] c"\0A\00", align 1
@.str.2 = private unnamed_addr constant [19 x i8] c"%s(%d): %s [%s:%d]\00", align 1
@.str.4 = private unnamed_addr constant [47 x i8] c"src/jdk.jdwp.agent/share/native/libjdwp/util.c\00", align 1
@.str.8 = private unnamed_addr constant [4 x i8] c"JNI\00", align 1
@.str.9 = private unnamed_addr constant [5 x i8] c"%s()\00", align 1
@.str.21 = private unnamed_addr constant [18 x i8] c"ExceptionOccurred\00", align 1
@.str.56 = private unnamed_addr constant [15 x i8] c"ExceptionClear\00", align 1
@.str.110 = private unnamed_addr constant [15 x i8] c"PushLocalFrame\00", align 1
@.str.111 = private unnamed_addr constant [41 x i8] c"PushLocalFrame: Unable to push JNI frame\00", align 1
@.str.112 = private unnamed_addr constant [6 x i8] c"Throw\00", align 1

; Function Attrs: nounwind uwtable
define hidden void @createLocalRefSpace(ptr noundef %0, i32 noundef %1) #0 {
  %3 = alloca ptr, align 8
  %4 = alloca i32, align 4
  %5 = alloca ptr, align 8
  store ptr %0, ptr %3, align 8
  store i32 %1, ptr %4, align 4
  %6 = load ptr, ptr @gdata, align 8
  %7 = getelementptr inbounds %struct.BackendGlobalData, ptr %6, i32 0, i32 38
  %8 = load i32, ptr %7, align 8
  %9 = and i32 %8, 2
  %10 = icmp ne i32 %9, 0
  br i1 %10, label %11, label %12

11:                                               ; preds = %2
  call void @log_message_begin(ptr noundef @.str.8, ptr noundef @.str.4, i32 noundef 1498)
  call void (ptr, ...) @log_message_end(ptr noundef @.str.9, ptr noundef @.str.21)
  br label %13

12:                                               ; preds = %2
  br label %13

13:                                               ; preds = %12, %11
  %14 = load ptr, ptr %3, align 8
  %15 = load ptr, ptr %14, align 8
  %16 = getelementptr inbounds %struct.JNINativeInterface_, ptr %15, i32 0, i32 15
  %17 = load ptr, ptr %16, align 8
  %18 = load ptr, ptr %3, align 8
  %19 = call ptr %17(ptr noundef %18)
  store ptr %19, ptr %5, align 8
  %20 = load ptr, ptr @gdata, align 8
  %21 = getelementptr inbounds %struct.BackendGlobalData, ptr %20, i32 0, i32 38
  %22 = load i32, ptr %21, align 8
  %23 = and i32 %22, 2
  %24 = icmp ne i32 %23, 0
  br i1 %24, label %25, label %26

25:                                               ; preds = %13
  call void @log_message_begin(ptr noundef @.str.8, ptr noundef @.str.4, i32 noundef 1503)
  call void (ptr, ...) @log_message_end(ptr noundef @.str.9, ptr noundef @.str.110)
  br label %27

26:                                               ; preds = %13
  br label %27

27:                                               ; preds = %26, %25
  %28 = load ptr, ptr %3, align 8
  %29 = load ptr, ptr %28, align 8
  %30 = getelementptr inbounds %struct.JNINativeInterface_, ptr %29, i32 0, i32 19
  %31 = load ptr, ptr %30, align 8
  %32 = load ptr, ptr %3, align 8
  %33 = load i32, ptr %4, align 4
  %34 = call i32 %31(ptr noundef %32, i32 noundef %33)
  %35 = icmp slt i32 %34, 0
  br i1 %35, label %36, label %39

36:                                               ; preds = %27
  %37 = load ptr, ptr @stderr, align 8
  %38 = call ptr @jvmtiErrorText(i32 noundef 188)
  call void (ptr, ptr, ptr, ptr, ...) @print_message(ptr noundef %37, ptr noundef @.str, ptr noundef @.str.1, ptr noundef @.str.2, ptr noundef %38, i32 noundef 188, ptr noundef @.str.111, ptr noundef @.str.4, i32 noundef 1504)
  call void @debugInit_exit(i32 noundef 188, ptr noundef @.str.111)
  br label %39

39:                                               ; preds = %36, %27
  %40 = load ptr, ptr %5, align 8
  %41 = icmp ne ptr %40, null
  br i1 %41, label %42, label %58

42:                                               ; preds = %39
  %43 = load ptr, ptr @gdata, align 8
  %44 = getelementptr inbounds %struct.BackendGlobalData, ptr %43, i32 0, i32 38
  %45 = load i32, ptr %44, align 8
  %46 = and i32 %45, 2
  %47 = icmp ne i32 %46, 0
  br i1 %47, label %48, label %49

48:                                               ; preds = %42
  call void @log_message_begin(ptr noundef @.str.8, ptr noundef @.str.4, i32 noundef 1520)
  call void (ptr, ...) @log_message_end(ptr noundef @.str.9, ptr noundef @.str.112)
  br label %50

49:                                               ; preds = %42
  br label %50

50:                                               ; preds = %49, %48
  %51 = load ptr, ptr %3, align 8
  %52 = load ptr, ptr %51, align 8
  %53 = getelementptr inbounds %struct.JNINativeInterface_, ptr %52, i32 0, i32 13
  %54 = load ptr, ptr %53, align 8
  %55 = load ptr, ptr %3, align 8
  %56 = load ptr, ptr %5, align 8
  %57 = call i32 %54(ptr noundef %55, ptr noundef %56)
  br label %72

58:                                               ; preds = %39
  %59 = load ptr, ptr @gdata, align 8
  %60 = getelementptr inbounds %struct.BackendGlobalData, ptr %59, i32 0, i32 38
  %61 = load i32, ptr %60, align 8
  %62 = and i32 %61, 2
  %63 = icmp ne i32 %62, 0
  br i1 %63, label %64, label %65

64:                                               ; preds = %58
  call void @log_message_begin(ptr noundef @.str.8, ptr noundef @.str.4, i32 noundef 1522)
  call void (ptr, ...) @log_message_end(ptr noundef @.str.9, ptr noundef @.str.56)
  br label %66

65:                                               ; preds = %58
  br label %66

66:                                               ; preds = %65, %64
  %67 = load ptr, ptr %3, align 8
  %68 = load ptr, ptr %67, align 8
  %69 = getelementptr inbounds %struct.JNINativeInterface_, ptr %68, i32 0, i32 17
  %70 = load ptr, ptr %69, align 8
  %71 = load ptr, ptr %3, align 8
  call void %70(ptr noundef %71)
  br label %72

72:                                               ; preds = %66, %50
  ret void
}