; Function Attrs: nounwind uwtable
define hidden void @createLocalRefSpace(ptr noundef %0, i32 noundef %1) local_unnamed_addr #0 {
  %3 = load ptr, ptr @gdata, align 8
  %4 = getelementptr inbounds i8, ptr %3, i64 528
  %5 = load i32, ptr %4, align 8
  %6 = and i32 %5, 2
  %.not = icmp eq i32 %6, 0
  br i1 %.not, label %8, label %7

7:                                                ; preds = %2
  tail call void @log_message_begin(ptr noundef nonnull @.str.8, ptr noundef nonnull @.str.4, i32 noundef 1498) #14
  tail call void (ptr, ...) @log_message_end(ptr noundef nonnull @.str.9, ptr noundef nonnull @.str.21) #14
  br label %8

8:                                                ; preds = %2, %7
  %9 = load ptr, ptr %0, align 8
  %10 = getelementptr inbounds i8, ptr %9, i64 120
  %11 = load ptr, ptr %10, align 8
  %12 = tail call ptr %11(ptr noundef nonnull %0) #14
  %13 = load ptr, ptr @gdata, align 8
  %14 = getelementptr inbounds i8, ptr %13, i64 528
  %15 = load i32, ptr %14, align 8
  %16 = and i32 %15, 2
  %.not10 = icmp eq i32 %16, 0
  br i1 %.not10, label %18, label %17

17:                                               ; preds = %8
  tail call void @log_message_begin(ptr noundef nonnull @.str.8, ptr noundef nonnull @.str.4, i32 noundef 1503) #14
  tail call void (ptr, ...) @log_message_end(ptr noundef nonnull @.str.9, ptr noundef nonnull @.str.110) #14
  br label %18

18:                                               ; preds = %8, %17
  %19 = load ptr, ptr %0, align 8
  %20 = getelementptr inbounds i8, ptr %19, i64 152
  %21 = load ptr, ptr %20, align 8
  %22 = tail call i32 %21(ptr noundef nonnull %0, i32 noundef %1) #14
  %23 = icmp slt i32 %22, 0
  br i1 %23, label %24, label %27

24:                                               ; preds = %18
  %25 = load ptr, ptr @stderr, align 8
  %26 = tail call ptr @jvmtiErrorText(i32 noundef 188) #14
  tail call void (ptr, ptr, ptr, ptr, ...) @print_message(ptr noundef %25, ptr noundef nonnull @.str, ptr noundef nonnull @.str.1, ptr noundef nonnull @.str.2, ptr noundef %26, i32 noundef 188, ptr noundef nonnull @.str.111, ptr noundef nonnull @.str.4, i32 noundef 1504) #14
  tail call void @debugInit_exit(i32 noundef 188, ptr noundef nonnull @.str.111) #14
  br label %27

27:                                               ; preds = %24, %18
  %.not11 = icmp eq ptr %12, null
  %28 = load ptr, ptr @gdata, align 8
  %29 = getelementptr inbounds i8, ptr %28, i64 528
  %30 = load i32, ptr %29, align 8
  %31 = and i32 %30, 2
  %.not12 = icmp eq i32 %31, 0
  br i1 %.not11, label %39, label %32

32:                                               ; preds = %27
  br i1 %.not12, label %34, label %33

33:                                               ; preds = %32
  tail call void @log_message_begin(ptr noundef nonnull @.str.8, ptr noundef nonnull @.str.4, i32 noundef 1520) #14
  tail call void (ptr, ...) @log_message_end(ptr noundef nonnull @.str.9, ptr noundef nonnull @.str.112) #14
  br label %34

34:                                               ; preds = %32, %33
  %35 = load ptr, ptr %0, align 8
  %36 = getelementptr inbounds i8, ptr %35, i64 104
  %37 = load ptr, ptr %36, align 8
  %38 = tail call i32 %37(ptr noundef nonnull %0, ptr noundef nonnull %12) #14
  br label %45

39:                                               ; preds = %27
  br i1 %.not12, label %41, label %40

40:                                               ; preds = %39
  tail call void @log_message_begin(ptr noundef nonnull @.str.8, ptr noundef nonnull @.str.4, i32 noundef 1522) #14
  tail call void (ptr, ...) @log_message_end(ptr noundef nonnull @.str.9, ptr noundef nonnull @.str.56) #14
  br label %41

41:                                               ; preds = %39, %40
  %42 = load ptr, ptr %0, align 8
  %43 = getelementptr inbounds i8, ptr %42, i64 136
  %44 = load ptr, ptr %43, align 8
  tail call void %44(ptr noundef nonnull %0) #14
  br label %45

45:                                               ; preds = %41, %34
  ret void
}